target datalayout = "e-m:e-p270:32:32-p271:32:32-p272:64:64-i64:64-i128:128-f80:128-n8:16:32:64-S128"
target triple = "x86_64-pc-linux-gnu"

%class.ShenandoahAdaptiveHeuristics = type { %class.ShenandoahHeuristics.base, %class.ShenandoahAllocationRate, double, double, i32, %class.TruncatedSeq }
%class.ShenandoahHeuristics.base = type <{ ptr, ptr, ptr, double, double, i64, i64, ptr, %struct.ShenandoahSharedFlag }>
%struct.ShenandoahSharedFlag = type { [64 x i8], i8, [64 x i8] }
%class.ShenandoahAllocationRate = type { double, i64, double, %class.TruncatedSeq, %class.TruncatedSeq }
%class.TruncatedSeq = type { %class.AbsSeq, ptr, i32, i32 }
%class.AbsSeq = type { ptr, i32, double, double, double, double, double }

; Function Attrs: mustprogress nounwind uwtable
define hidden void @_ZN24ShenandoahAllocationRate24allocation_counter_resetEv(ptr noundef nonnull align 8 dereferenceable(168) %0) #1 align 2 {
  %2 = alloca ptr, align 8
  store ptr %0, ptr %2, align 8
  %3 = load ptr, ptr %2, align 8
  %4 = call noundef double @_ZN2os11elapsedTimeEv()
  %5 = getelementptr inbounds %class.ShenandoahAllocationRate, ptr %3, i32 0, i32 0
  store double %4, ptr %5, align 8
  %6 = getelementptr inbounds %class.ShenandoahAllocationRate, ptr %3, i32 0, i32 1
  store i64 0, ptr %6, align 8
  ret void
}

; Function Attrs: mustprogress nounwind uwtable
define hidden void @_ZN28ShenandoahAdaptiveHeuristics18record_cycle_startEv(ptr noundef nonnull align 8 dereferenceable(464) %0) unnamed_addr #1 align 2 {
  %2 = alloca ptr, align 8
  store ptr %0, ptr %2, align 8
  %3 = load ptr, ptr %2, align 8
  call void @_ZN20ShenandoahHeuristics18record_cycle_startEv(ptr noundef nonnull align 8 dereferenceable(193) %3)
  %4 = getelementptr inbounds %class.ShenandoahAdaptiveHeuristics, ptr %3, i32 0, i32 1
  call void @_ZN24ShenandoahAllocationRate24allocation_counter_resetEv(ptr noundef nonnull align 8 dereferenceable(168) %4)
  ret void
}