; Function Attrs: mustprogress nounwind uwtable
define hidden void @_ZN28ShenandoahAdaptiveHeuristics18record_cycle_startEv(ptr noundef nonnull align 8 dereferenceable(464) %0) unnamed_addr #0 align 2 {
  tail call void @_ZN20ShenandoahHeuristics18record_cycle_startEv(ptr noundef nonnull align 8 dereferenceable(193) %0) #11
  %2 = getelementptr inbounds i8, ptr %0, i64 200
  %3 = tail call noundef double @_ZN2os11elapsedTimeEv() #11
  store double %3, ptr %2, align 8
  %4 = getelementptr inbounds i8, ptr %0, i64 208
  store i64 0, ptr %4, align 8
  ret void
}